; Function Attrs: mustprogress nofree norecurse nosync nounwind willreturn memory(argmem: readwrite) uwtable
define hidden void @_ZN16JfrJavaArguments12push_jobjectEP8_jobject(ptr nocapture noundef nonnull align 8 dereferenceable(300) %0, ptr noundef %1) local_unnamed_addr #1 align 2 {
  %3 = getelementptr inbounds i8, ptr %0, i64 256
  %4 = load <2 x i32>, ptr %3, align 8
  %5 = extractelement <2 x i32> %4, i64 0
  %6 = sext i32 %5 to i64
  %7 = getelementptr inbounds [16 x %class.JavaValue], ptr %0, i64 0, i64 %6
  %8 = add nsw <2 x i32> %4, <i32 1, i32 1>
  store <2 x i32> %8, ptr %3, align 8
  store i8 15, ptr %7, align 8
  %.sroa.22.0..sroa_idx.i = getelementptr inbounds i8, ptr %7, i64 8
  store ptr %1, ptr %.sroa.22.0..sroa_idx.i, align 8
  ret void
}